; Function Attrs: nounwind uwtable
define internal fastcc i32 @save_rational(ptr noundef %0, i64 %.24.val.0.val) unnamed_addr #2 {
  %2 = alloca i32, align 4
  %3 = alloca %struct.exr_attr_rational_t, align 8
  call void @llvm.lifetime.start.p0(i64 8, ptr nonnull %3) #6
  store i64 %.24.val.0.val, ptr %3, align 8
  call void @llvm.lifetime.start.p0(i64 4, ptr nonnull %2) #6
  store i32 8, ptr %2, align 4, !tbaa !43
  %4 = getelementptr inbounds nuw i8, ptr %0, i64 48
  %5 = load ptr, ptr %4, align 8, !tbaa !46
  %6 = getelementptr inbounds nuw i8, ptr %0, i64 176
  %7 = call i32 %5(ptr noundef %0, ptr noundef nonnull %2, i64 noundef 4, ptr noundef nonnull %6) #6
  call void @llvm.lifetime.end.p0(i64 4, ptr nonnull %2) #6
  %8 = icmp eq i32 %7, 0
  br i1 %8, label %9, label %12

9:                                                ; preds = %1
  %10 = load ptr, ptr %4, align 8, !tbaa !46
  %11 = call i32 %10(ptr noundef nonnull %0, ptr noundef nonnull %3, i64 noundef 8, ptr noundef nonnull %6) #6
  br label %12

12:                                               ; preds = %9, %1
  %.0 = phi i32 [ %11, %9 ], [ %7, %1 ]
  call void @llvm.lifetime.end.p0(i64 8, ptr nonnull %3) #6
  ret i32 %.0
}